target datalayout = "e-m:e-p270:32:32-p271:32:32-p272:64:64-i64:64-i128:128-f80:128-n8:16:32:64-S128"
target triple = "x86_64-pc-linux-gnu"

%struct.expert_field = type { i32, i32 }

@hf_ndps_server_name = internal global i32 0, align 4
@hf_ndps_num_servers = internal global i32 0, align 4
@hf_ndps_server_type = internal global i32 0, align 4
@hf_ndps_data_item_type = internal global i32 0, align 4
@hf_info_int = internal global i32 0, align 4
@hf_info_int16 = internal global i32 0, align 4
@hf_info_int32 = internal global i32 0, align 4
@hf_info_boolean = internal global i32 0, align 4
@hf_info_string = internal global i32 0, align 4
@ett_ndps = internal global i32 0, align 4
@ei_ndps_truncated = internal global %struct.expert_field zeroinitializer, align 4
@.str.3511 = private unnamed_addr constant [12 x i8] c"Server Info\00", align 1
@.str.3512 = private unnamed_addr constant [5 x i8] c": %s\00", align 1
@.str.3513 = private unnamed_addr constant [8 x i8] c"Info %u\00", align 1

; Function Attrs: nounwind uwtable
define internal i32 @server_entry(ptr noundef %0, ptr noundef %1, ptr noundef %2, i32 noundef %3) #0 {
  %5 = alloca ptr, align 8
  %6 = alloca ptr, align 8
  %7 = alloca ptr, align 8
  %8 = alloca i32, align 4
  %9 = alloca ptr, align 8
  %10 = alloca i32, align 4
  %11 = alloca i32, align 4
  %12 = alloca i32, align 4
  %13 = alloca ptr, align 8
  %14 = alloca ptr, align 8
  %15 = alloca ptr, align 8
  %16 = alloca ptr, align 8
  %17 = alloca ptr, align 8
  store ptr %0, ptr %5, align 8
  store ptr %1, ptr %6, align 8
  store ptr %2, ptr %7, align 8
  store i32 %3, ptr %8, align 4
  %18 = load ptr, ptr %7, align 8
  %19 = load ptr, ptr %5, align 8
  %20 = load i32, ptr %8, align 4
  %21 = load i32, ptr @ett_ndps, align 4
  %22 = call ptr @proto_tree_add_subtree(ptr noundef %18, ptr noundef %19, i32 noundef %20, i32 noundef -1, i32 noundef %21, ptr noundef %15, ptr noundef @.str.3511)
  store ptr %22, ptr %13, align 8
  %23 = load ptr, ptr %5, align 8
  %24 = load i32, ptr @hf_ndps_server_name, align 4
  %25 = load ptr, ptr %7, align 8
  %26 = load i32, ptr %8, align 4
  %27 = call i32 @ndps_string(ptr noundef %23, i32 noundef %24, ptr noundef %25, i32 noundef %26, ptr noundef %9)
  store i32 %27, ptr %8, align 4
  %28 = load ptr, ptr %15, align 8
  %29 = call ptr @wmem_packet_scope()
  %30 = load ptr, ptr %9, align 8
  %31 = load ptr, ptr %9, align 8
  %32 = call i64 @strlen(ptr noundef %31) #3
  %33 = call ptr @format_text(ptr noundef %29, ptr noundef %30, i64 noundef %32)
  call void (ptr, ptr, ...) @proto_item_append_text(ptr noundef %28, ptr noundef @.str.3512, ptr noundef %33)
  %34 = load ptr, ptr %13, align 8
  %35 = load i32, ptr @hf_ndps_server_type, align 4
  %36 = load ptr, ptr %5, align 8
  %37 = load i32, ptr %8, align 4
  %38 = call ptr @proto_tree_add_item(ptr noundef %34, i32 noundef %35, ptr noundef %36, i32 noundef %37, i32 noundef 4, i32 noundef 0)
  %39 = load i32, ptr %8, align 4
  %40 = add i32 %39, 4
  store i32 %40, ptr %8, align 4
  %41 = load ptr, ptr %5, align 8
  %42 = load ptr, ptr %13, align 8
  %43 = load i32, ptr %8, align 4
  %44 = call i32 @print_address(ptr noundef %41, ptr noundef %42, i32 noundef %43)
  store i32 %44, ptr %8, align 4
  %45 = load ptr, ptr %5, align 8
  %46 = load i32, ptr %8, align 4
  %47 = call i32 @tvb_get_ntohl(ptr noundef %45, i32 noundef %46)
  store i32 %47, ptr %10, align 4
  %48 = load ptr, ptr %13, align 8
  %49 = load i32, ptr @hf_ndps_num_servers, align 4
  %50 = load ptr, ptr %5, align 8
  %51 = load i32, ptr %8, align 4
  %52 = load i32, ptr %10, align 4
  %53 = call ptr @proto_tree_add_uint(ptr noundef %48, i32 noundef %49, ptr noundef %50, i32 noundef %51, i32 noundef 4, i32 noundef %52)
  store ptr %53, ptr %17, align 8
  %54 = load i32, ptr %8, align 4
  %55 = add i32 %54, 4
  store i32 %55, ptr %8, align 4
  store i32 0, ptr %11, align 4
  br label %56

56:                                               ; preds = %129, %4
  %57 = load i32, ptr %11, align 4
  %58 = load i32, ptr %10, align 4
  %59 = icmp ult i32 %57, %58
  br i1 %59, label %60, label %132

60:                                               ; preds = %56
  %61 = load i32, ptr %11, align 4
  %62 = icmp uge i32 %61, 100
  br i1 %62, label %63, label %67

63:                                               ; preds = %60
  %64 = load ptr, ptr %6, align 8
  %65 = load ptr, ptr %17, align 8
  %66 = call ptr @expert_add_info(ptr noundef %64, ptr noundef %65, ptr noundef @ei_ndps_truncated)
  br label %132

67:                                               ; preds = %60
  %68 = load ptr, ptr %13, align 8
  %69 = load ptr, ptr %5, align 8
  %70 = load i32, ptr %8, align 4
  %71 = load i32, ptr @ett_ndps, align 4
  %72 = load i32, ptr %11, align 4
  %73 = add i32 %72, 1
  %74 = call ptr (ptr, ptr, i32, i32, i32, ptr, ptr, ...) @proto_tree_add_subtree_format(ptr noundef %68, ptr noundef %69, i32 noundef %70, i32 noundef -1, i32 noundef %71, ptr noundef %16, ptr noundef @.str.3513, i32 noundef %73)
  store ptr %74, ptr %14, align 8
  %75 = load ptr, ptr %5, align 8
  %76 = load i32, ptr %8, align 4
  %77 = call i32 @tvb_get_ntohl(ptr noundef %75, i32 noundef %76)
  store i32 %77, ptr %12, align 4
  %78 = load ptr, ptr %14, align 8
  %79 = load i32, ptr @hf_ndps_data_item_type, align 4
  %80 = load ptr, ptr %5, align 8
  %81 = load i32, ptr %8, align 4
  %82 = call ptr @proto_tree_add_item(ptr noundef %78, i32 noundef %79, ptr noundef %80, i32 noundef %81, i32 noundef 4, i32 noundef 0)
  %83 = load i32, ptr %8, align 4
  %84 = add i32 %83, 4
  store i32 %84, ptr %8, align 4
  %85 = load i32, ptr %12, align 4
  switch i32 %85, label %124 [
    i32 0, label %86
    i32 1, label %94
    i32 2, label %102
    i32 3, label %110
    i32 4, label %118
    i32 5, label %118
  ]

86:                                               ; preds = %67
  %87 = load ptr, ptr %14, align 8
  %88 = load i32, ptr @hf_info_int, align 4
  %89 = load ptr, ptr %5, align 8
  %90 = load i32, ptr %8, align 4
  %91 = call ptr @proto_tree_add_item(ptr noundef %87, i32 noundef %88, ptr noundef %89, i32 noundef %90, i32 noundef 1, i32 noundef 0)
  %92 = load i32, ptr %8, align 4
  %93 = add i32 %92, 1
  store i32 %93, ptr %8, align 4
  br label %125

94:                                               ; preds = %67
  %95 = load ptr, ptr %14, align 8
  %96 = load i32, ptr @hf_info_int16, align 4
  %97 = load ptr, ptr %5, align 8
  %98 = load i32, ptr %8, align 4
  %99 = call ptr @proto_tree_add_item(ptr noundef %95, i32 noundef %96, ptr noundef %97, i32 noundef %98, i32 noundef 2, i32 noundef 0)
  %100 = load i32, ptr %8, align 4
  %101 = add i32 %100, 2
  store i32 %101, ptr %8, align 4
  br label %125

102:                                              ; preds = %67
  %103 = load ptr, ptr %14, align 8
  %104 = load i32, ptr @hf_info_int32, align 4
  %105 = load ptr, ptr %5, align 8
  %106 = load i32, ptr %8, align 4
  %107 = call ptr @proto_tree_add_item(ptr noundef %103, i32 noundef %104, ptr noundef %105, i32 noundef %106, i32 noundef 4, i32 noundef 0)
  %108 = load i32, ptr %8, align 4
  %109 = add i32 %108, 4
  store i32 %109, ptr %8, align 4
  br label %125

110:                                              ; preds = %67
  %111 = load ptr, ptr %14, align 8
  %112 = load i32, ptr @hf_info_boolean, align 4
  %113 = load ptr, ptr %5, align 8
  %114 = load i32, ptr %8, align 4
  %115 = call ptr @proto_tree_add_item(ptr noundef %111, i32 noundef %112, ptr noundef %113, i32 noundef %114, i32 noundef 4, i32 noundef 0)
  %116 = load i32, ptr %8, align 4
  %117 = add i32 %116, 4
  store i32 %117, ptr %8, align 4
  br label %125

118:                                              ; preds = %67, %67
  %119 = load ptr, ptr %5, align 8
  %120 = load i32, ptr @hf_info_string, align 4
  %121 = load ptr, ptr %14, align 8
  %122 = load i32, ptr %8, align 4
  %123 = call i32 @ndps_string(ptr noundef %119, i32 noundef %120, ptr noundef %121, i32 noundef %122, ptr noundef null)
  store i32 %123, ptr %8, align 4
  br label %125

124:                                              ; preds = %67
  br label %125

125:                                              ; preds = %124, %118, %110, %102, %94, %86
  %126 = load ptr, ptr %16, align 8
  %127 = load ptr, ptr %5, align 8
  %128 = load i32, ptr %8, align 4
  call void @proto_item_set_end(ptr noundef %126, ptr noundef %127, i32 noundef %128)
  br label %129

129:                                              ; preds = %125
  %130 = load i32, ptr %11, align 4
  %131 = add i32 %130, 1
  store i32 %131, ptr %11, align 4
  br label %56, !llvm.loop !110

132:                                              ; preds = %63, %56
  %133 = load ptr, ptr %15, align 8
  %134 = load ptr, ptr %5, align 8
  %135 = load i32, ptr %8, align 4
  call void @proto_item_set_end(ptr noundef %133, ptr noundef %134, i32 noundef %135)
  %136 = load i32, ptr %8, align 4
  ret i32 %136
}