; Function Attrs: nounwind uwtable
define internal fastcc noundef i32 @server_entry(ptr noundef %0, ptr noundef %1, ptr noundef %2, i32 noundef %3) unnamed_addr #0 {
  %5 = alloca ptr, align 8
  %6 = alloca ptr, align 8
  %7 = alloca ptr, align 8
  %8 = load i32, ptr @ett_ndps, align 4
  %9 = call ptr @proto_tree_add_subtree(ptr noundef %2, ptr noundef %0, i32 noundef %3, i32 noundef -1, i32 noundef %8, ptr noundef nonnull %6, ptr noundef nonnull @.str.3511) #6
  %10 = load i32, ptr @hf_ndps_server_name, align 4
  %11 = call fastcc i32 @ndps_string(ptr noundef %0, i32 noundef %10, ptr noundef %2, i32 noundef %3, ptr noundef nonnull %5)
  %12 = load ptr, ptr %6, align 8
  %13 = call ptr @wmem_packet_scope() #6
  %14 = load ptr, ptr %5, align 8
  %15 = call i64 @strlen(ptr noundef nonnull dereferenceable(1) %14) #7
  %16 = call ptr @format_text(ptr noundef %13, ptr noundef nonnull %14, i64 noundef %15) #6
  call void (ptr, ptr, ...) @proto_item_append_text(ptr noundef %12, ptr noundef nonnull @.str.3512, ptr noundef %16) #6
  %17 = load i32, ptr @hf_ndps_server_type, align 4
  %18 = call ptr @proto_tree_add_item(ptr noundef %9, i32 noundef %17, ptr noundef %0, i32 noundef %11, i32 noundef 4, i32 noundef 0) #6
  %19 = add i32 %11, 4
  %20 = call fastcc i32 @print_address(ptr noundef %0, ptr noundef %9, i32 noundef %19)
  %21 = call i32 @tvb_get_ntohl(ptr noundef %0, i32 noundef %20) #6
  %22 = load i32, ptr @hf_ndps_num_servers, align 4
  %23 = call ptr @proto_tree_add_uint(ptr noundef %9, i32 noundef %22, ptr noundef %0, i32 noundef %20, i32 noundef 4, i32 noundef %21) #6
  %24 = add i32 %20, 4
  %.not = icmp eq i32 %21, 0
  br i1 %.not, label %.loopexit, label %.lr.ph

.lr.ph:                                           ; preds = %4, %54
  %.064 = phi i32 [ %.1, %54 ], [ %24, %4 ]
  %.06063 = phi i32 [ %29, %54 ], [ 0, %4 ]
  %exitcond = icmp eq i32 %.06063, 100
  br i1 %exitcond, label %25, label %27

25:                                               ; preds = %.lr.ph
  %26 = call ptr @expert_add_info(ptr noundef %1, ptr noundef %23, ptr noundef nonnull @ei_ndps_truncated) #6
  br label %.loopexit

27:                                               ; preds = %.lr.ph
  %28 = load i32, ptr @ett_ndps, align 4
  %29 = add nuw nsw i32 %.06063, 1
  %30 = call ptr (ptr, ptr, i32, i32, i32, ptr, ptr, ...) @proto_tree_add_subtree_format(ptr noundef %9, ptr noundef %0, i32 noundef %.064, i32 noundef -1, i32 noundef %28, ptr noundef nonnull %7, ptr noundef nonnull @.str.3513, i32 noundef %29) #6
  %31 = call i32 @tvb_get_ntohl(ptr noundef %0, i32 noundef %.064) #6
  %32 = load i32, ptr @hf_ndps_data_item_type, align 4
  %33 = call ptr @proto_tree_add_item(ptr noundef %30, i32 noundef %32, ptr noundef %0, i32 noundef %.064, i32 noundef 4, i32 noundef 0) #6
  %34 = add i32 %.064, 4
  switch i32 %31, label %54 [
    i32 0, label %35
    i32 1, label %39
    i32 2, label %43
    i32 3, label %47
    i32 4, label %51
    i32 5, label %51
  ]

35:                                               ; preds = %27
  %36 = load i32, ptr @hf_info_int, align 4
  %37 = call ptr @proto_tree_add_item(ptr noundef %30, i32 noundef %36, ptr noundef %0, i32 noundef %34, i32 noundef 1, i32 noundef 0) #6
  %38 = add i32 %.064, 5
  br label %54

39:                                               ; preds = %27
  %40 = load i32, ptr @hf_info_int16, align 4
  %41 = call ptr @proto_tree_add_item(ptr noundef %30, i32 noundef %40, ptr noundef %0, i32 noundef %34, i32 noundef 2, i32 noundef 0) #6
  %42 = add i32 %.064, 6
  br label %54

43:                                               ; preds = %27
  %44 = load i32, ptr @hf_info_int32, align 4
  %45 = call ptr @proto_tree_add_item(ptr noundef %30, i32 noundef %44, ptr noundef %0, i32 noundef %34, i32 noundef 4, i32 noundef 0) #6
  %46 = add i32 %.064, 8
  br label %54

47:                                               ; preds = %27
  %48 = load i32, ptr @hf_info_boolean, align 4
  %49 = call ptr @proto_tree_add_item(ptr noundef %30, i32 noundef %48, ptr noundef %0, i32 noundef %34, i32 noundef 4, i32 noundef 0) #6
  %50 = add i32 %.064, 8
  br label %54

51:                                               ; preds = %27, %27
  %52 = load i32, ptr @hf_info_string, align 4
  %53 = call fastcc i32 @ndps_string(ptr noundef %0, i32 noundef %52, ptr noundef %30, i32 noundef %34, ptr noundef null)
  br label %54

54:                                               ; preds = %27, %51, %47, %43, %39, %35
  %.1 = phi i32 [ %34, %27 ], [ %53, %51 ], [ %50, %47 ], [ %46, %43 ], [ %42, %39 ], [ %38, %35 ]
  %55 = load ptr, ptr %7, align 8
  call void @proto_item_set_end(ptr noundef %55, ptr noundef %0, i32 noundef %.1) #6
  %exitcond66.not = icmp eq i32 %29, %21
  br i1 %exitcond66.not, label %.loopexit, label %.lr.ph, !llvm.loop !110

.loopexit:                                        ; preds = %54, %4, %25
  %.062 = phi i32 [ %.064, %25 ], [ %24, %4 ], [ %.1, %54 ]
  %56 = load ptr, ptr %6, align 8
  call void @proto_item_set_end(ptr noundef %56, ptr noundef %0, i32 noundef %.062) #6
  ret i32 %.062
}